; Function Attrs: mustprogress uwtable
define void @_ZN12PacketDialog18captureFileClosingEv(ptr noundef nonnull align 8 dereferenceable(968) %0) unnamed_addr #0 align 2 personality ptr @__gxx_personality_v0 {
  %2 = alloca %class.QString, align 8
  %3 = alloca %class.QString, align 8
  %4 = alloca %class.QString, align 8
  %5 = alloca %class.QString, align 8
  call void @_ZNK11QMetaObject2trEPKcS1_i(ptr dead_on_unwind nonnull writable sret(%class.QString) align 8 %4, ptr noundef nonnull align 8 dereferenceable(56) @_ZN12PacketDialog16staticMetaObjectE, ptr noundef nonnull @.str.13, ptr noundef null, i32 noundef -1)
  %6 = getelementptr inbounds i8, ptr %0, i64 64
  %7 = load ptr, ptr %6, align 8
  invoke void @_ZN11CaptureFile8fileNameEv(ptr dead_on_unwind nonnull writable sret(%class.QString) align 8 %5, ptr noundef nonnull align 8 dereferenceable(48) %7)
          to label %8 unwind label %37

8:                                                ; preds = %1
  invoke void @_ZNK7QString3argERKS_i5QChar(ptr dead_on_unwind nonnull writable sret(%class.QString) align 8 %3, ptr noundef nonnull align 8 dereferenceable(24) %4, ptr noundef nonnull align 8 dereferenceable(24) %5, i32 noundef 0, i16 32)
          to label %9 unwind label %39

9:                                                ; preds = %8
  %10 = getelementptr inbounds i8, ptr %0, i64 152
  invoke void @_ZNK7QString3argERKS_i5QChar(ptr dead_on_unwind nonnull writable sret(%class.QString) align 8 %2, ptr noundef nonnull align 8 dereferenceable(24) %3, ptr noundef nonnull align 8 dereferenceable(24) %10, i32 noundef 0, i16 32)
          to label %11 unwind label %41

11:                                               ; preds = %9
  %12 = load ptr, ptr %3, align 8
  %.not.i.i.i = icmp eq ptr %12, null
  br i1 %.not.i.i.i, label %_ZN7QStringD2Ev.exit, label %_ZN17QArrayDataPointerIDsE5derefEv.exit.i.i

_ZN17QArrayDataPointerIDsE5derefEv.exit.i.i:      ; preds = %11
  %13 = atomicrmw sub ptr %12, i32 1 seq_cst, align 4
  %.not.i.i = icmp eq i32 %13, 1
  br i1 %.not.i.i, label %14, label %_ZN7QStringD2Ev.exit

14:                                               ; preds = %_ZN17QArrayDataPointerIDsE5derefEv.exit.i.i
  %15 = load ptr, ptr %3, align 8
  call void @_ZN10QArrayData10deallocateEPS_xx(ptr noundef %15, i64 noundef 2, i64 noundef 8) #16
  br label %_ZN7QStringD2Ev.exit

_ZN7QStringD2Ev.exit:                             ; preds = %11, %_ZN17QArrayDataPointerIDsE5derefEv.exit.i.i, %14
  %16 = load ptr, ptr %5, align 8
  %.not.i.i.i9 = icmp eq ptr %16, null
  br i1 %.not.i.i.i9, label %_ZN7QStringD2Ev.exit12, label %_ZN17QArrayDataPointerIDsE5derefEv.exit.i.i10

_ZN17QArrayDataPointerIDsE5derefEv.exit.i.i10:    ; preds = %_ZN7QStringD2Ev.exit
  %17 = atomicrmw sub ptr %16, i32 1 seq_cst, align 4
  %.not.i.i11 = icmp eq i32 %17, 1
  br i1 %.not.i.i11, label %18, label %_ZN7QStringD2Ev.exit12

18:                                               ; preds = %_ZN17QArrayDataPointerIDsE5derefEv.exit.i.i10
  %19 = load ptr, ptr %5, align 8
  call void @_ZN10QArrayData10deallocateEPS_xx(ptr noundef %19, i64 noundef 2, i64 noundef 8) #16
  br label %_ZN7QStringD2Ev.exit12

_ZN7QStringD2Ev.exit12:                           ; preds = %_ZN7QStringD2Ev.exit, %_ZN17QArrayDataPointerIDsE5derefEv.exit.i.i10, %18
  %20 = load ptr, ptr %4, align 8
  %.not.i.i.i13 = icmp eq ptr %20, null
  br i1 %.not.i.i.i13, label %_ZN7QStringD2Ev.exit16, label %_ZN17QArrayDataPointerIDsE5derefEv.exit.i.i14

_ZN17QArrayDataPointerIDsE5derefEv.exit.i.i14:    ; preds = %_ZN7QStringD2Ev.exit12
  %21 = atomicrmw sub ptr %20, i32 1 seq_cst, align 4
  %.not.i.i15 = icmp eq i32 %21, 1
  br i1 %.not.i.i15, label %22, label %_ZN7QStringD2Ev.exit16

22:                                               ; preds = %_ZN17QArrayDataPointerIDsE5derefEv.exit.i.i14
  %23 = load ptr, ptr %4, align 8
  call void @_ZN10QArrayData10deallocateEPS_xx(ptr noundef %23, i64 noundef 2, i64 noundef 8) #16
  br label %_ZN7QStringD2Ev.exit16

_ZN7QStringD2Ev.exit16:                           ; preds = %_ZN7QStringD2Ev.exit12, %_ZN17QArrayDataPointerIDsE5derefEv.exit.i.i14, %22
  %24 = getelementptr inbounds i8, ptr %0, i64 136
  %25 = load ptr, ptr %24, align 8
  %26 = getelementptr inbounds i8, ptr %25, i64 16
  %27 = load ptr, ptr %26, align 8
  invoke void @_ZN11ElidedLabel7setTextERK7QString(ptr noundef nonnull align 8 dereferenceable(96) %27, ptr noundef nonnull align 8 dereferenceable(24) %2)
          to label %28 unwind label %53

28:                                               ; preds = %_ZN7QStringD2Ev.exit16
  %29 = getelementptr inbounds i8, ptr %0, i64 184
  %30 = load ptr, ptr %29, align 8
  invoke void @_ZN11ByteViewTab18captureFileClosingEv(ptr noundef nonnull align 8 dereferenceable(65) %30)
          to label %31 unwind label %53

31:                                               ; preds = %28
  invoke void @_ZN15WiresharkDialog18captureFileClosingEv(ptr noundef nonnull align 8 dereferenceable(133) %0)
          to label %32 unwind label %53

32:                                               ; preds = %31
  %33 = load ptr, ptr %2, align 8
  %.not.i.i.i17 = icmp eq ptr %33, null
  br i1 %.not.i.i.i17, label %_ZN7QStringD2Ev.exit20, label %_ZN17QArrayDataPointerIDsE5derefEv.exit.i.i18

_ZN17QArrayDataPointerIDsE5derefEv.exit.i.i18:    ; preds = %32
  %34 = atomicrmw sub ptr %33, i32 1 seq_cst, align 4
  %.not.i.i19 = icmp eq i32 %34, 1
  br i1 %.not.i.i19, label %35, label %_ZN7QStringD2Ev.exit20

35:                                               ; preds = %_ZN17QArrayDataPointerIDsE5derefEv.exit.i.i18
  %36 = load ptr, ptr %2, align 8
  call void @_ZN10QArrayData10deallocateEPS_xx(ptr noundef %36, i64 noundef 2, i64 noundef 8) #16
  br label %_ZN7QStringD2Ev.exit20

_ZN7QStringD2Ev.exit20:                           ; preds = %32, %_ZN17QArrayDataPointerIDsE5derefEv.exit.i.i18, %35
  ret void

37:                                               ; preds = %1
  %38 = landingpad { ptr, i32 }
          cleanup
  br label %_ZN7QStringD2Ev.exit28

39:                                               ; preds = %8
  %40 = landingpad { ptr, i32 }
          cleanup
  br label %_ZN7QStringD2Ev.exit24

41:                                               ; preds = %9
  %42 = landingpad { ptr, i32 }
          cleanup
  %43 = load ptr, ptr %3, align 8
  %.not.i.i.i21 = icmp eq ptr %43, null
  br i1 %.not.i.i.i21, label %_ZN7QStringD2Ev.exit24, label %_ZN17QArrayDataPointerIDsE5derefEv.exit.i.i22

_ZN17QArrayDataPointerIDsE5derefEv.exit.i.i22:    ; preds = %41
  %44 = atomicrmw sub ptr %43, i32 1 seq_cst, align 4
  %.not.i.i23 = icmp eq i32 %44, 1
  br i1 %.not.i.i23, label %45, label %_ZN7QStringD2Ev.exit24

45:                                               ; preds = %_ZN17QArrayDataPointerIDsE5derefEv.exit.i.i22
  %46 = load ptr, ptr %3, align 8
  call void @_ZN10QArrayData10deallocateEPS_xx(ptr noundef %46, i64 noundef 2, i64 noundef 8) #16
  br label %_ZN7QStringD2Ev.exit24

_ZN7QStringD2Ev.exit24:                           ; preds = %45, %_ZN17QArrayDataPointerIDsE5derefEv.exit.i.i22, %41, %39
  %.pn = phi { ptr, i32 } [ %40, %39 ], [ %42, %41 ], [ %42, %_ZN17QArrayDataPointerIDsE5derefEv.exit.i.i22 ], [ %42, %45 ]
  %47 = load ptr, ptr %5, align 8
  %.not.i.i.i25 = icmp eq ptr %47, null
  br i1 %.not.i.i.i25, label %_ZN7QStringD2Ev.exit28, label %_ZN17QArrayDataPointerIDsE5derefEv.exit.i.i26

_ZN17QArrayDataPointerIDsE5derefEv.exit.i.i26:    ; preds = %_ZN7QStringD2Ev.exit24
  %48 = atomicrmw sub ptr %47, i32 1 seq_cst, align 4
  %.not.i.i27 = icmp eq i32 %48, 1
  br i1 %.not.i.i27, label %49, label %_ZN7QStringD2Ev.exit28

49:                                               ; preds = %_ZN17QArrayDataPointerIDsE5derefEv.exit.i.i26
  %50 = load ptr, ptr %5, align 8
  call void @_ZN10QArrayData10deallocateEPS_xx(ptr noundef %50, i64 noundef 2, i64 noundef 8) #16
  br label %_ZN7QStringD2Ev.exit28

_ZN7QStringD2Ev.exit28:                           ; preds = %49, %_ZN17QArrayDataPointerIDsE5derefEv.exit.i.i26, %_ZN7QStringD2Ev.exit24, %37
  %.pn.pn = phi { ptr, i32 } [ %38, %37 ], [ %.pn, %_ZN7QStringD2Ev.exit24 ], [ %.pn, %_ZN17QArrayDataPointerIDsE5derefEv.exit.i.i26 ], [ %.pn, %49 ]
  %51 = load ptr, ptr %4, align 8
  %.not.i.i.i29 = icmp eq ptr %51, null
  br i1 %.not.i.i.i29, label %_ZN7QStringD2Ev.exit32, label %_ZN17QArrayDataPointerIDsE5derefEv.exit.i.i30

_ZN17QArrayDataPointerIDsE5derefEv.exit.i.i30:    ; preds = %_ZN7QStringD2Ev.exit28
  %52 = atomicrmw sub ptr %51, i32 1 seq_cst, align 4
  %.not.i.i31 = icmp eq i32 %52, 1
  br i1 %.not.i.i31, label %_ZN7QStringD2Ev.exit32.sink.split, label %_ZN7QStringD2Ev.exit32

53:                                               ; preds = %31, %28, %_ZN7QStringD2Ev.exit16
  %54 = landingpad { ptr, i32 }
          cleanup
  %55 = load ptr, ptr %2, align 8
  %.not.i.i.i33 = icmp eq ptr %55, null
  br i1 %.not.i.i.i33, label %_ZN7QStringD2Ev.exit32, label %_ZN17QArrayDataPointerIDsE5derefEv.exit.i.i34

_ZN17QArrayDataPointerIDsE5derefEv.exit.i.i34:    ; preds = %53
  %56 = atomicrmw sub ptr %55, i32 1 seq_cst, align 4
  %.not.i.i35 = icmp eq i32 %56, 1
  br i1 %.not.i.i35, label %_ZN7QStringD2Ev.exit32.sink.split, label %_ZN7QStringD2Ev.exit32

_ZN7QStringD2Ev.exit32.sink.split:                ; preds = %_ZN17QArrayDataPointerIDsE5derefEv.exit.i.i34, %_ZN17QArrayDataPointerIDsE5derefEv.exit.i.i30
  %.sink.in = phi ptr [ %4, %_ZN17QArrayDataPointerIDsE5derefEv.exit.i.i30 ], [ %2, %_ZN17QArrayDataPointerIDsE5derefEv.exit.i.i34 ]
  %.pn7.ph = phi { ptr, i32 } [ %.pn.pn, %_ZN17QArrayDataPointerIDsE5derefEv.exit.i.i30 ], [ %54, %_ZN17QArrayDataPointerIDsE5derefEv.exit.i.i34 ]
  %.sink = load ptr, ptr %.sink.in, align 8
  call void @_ZN10QArrayData10deallocateEPS_xx(ptr noundef %.sink, i64 noundef 2, i64 noundef 8) #16
  br label %_ZN7QStringD2Ev.exit32

_ZN7QStringD2Ev.exit32:                           ; preds = %_ZN7QStringD2Ev.exit32.sink.split, %_ZN17QArrayDataPointerIDsE5derefEv.exit.i.i34, %53, %_ZN17QArrayDataPointerIDsE5derefEv.exit.i.i30, %_ZN7QStringD2Ev.exit28
  %.pn7 = phi { ptr, i32 } [ %.pn.pn, %_ZN7QStringD2Ev.exit28 ], [ %.pn.pn, %_ZN17QArrayDataPointerIDsE5derefEv.exit.i.i30 ], [ %54, %53 ], [ %54, %_ZN17QArrayDataPointerIDsE5derefEv.exit.i.i34 ], [ %.pn7.ph, %_ZN7QStringD2Ev.exit32.sink.split ]
  resume { ptr, i32 } %.pn7
}